---
triple:          'arm64-apple-darwin'
binary-path:     '/Users/pranjaldubey/Developer/DSA-Cpp/Stacks/exercises/reverse_stack'
relocations:
  - { offsetInCU: 0x51D1, offset: 0x51D1, size: 0x8, addend: 0x0, symName: __ZNSt3__124__put_character_sequenceB8ne180100IcNS_11char_traitsIcEEEERNS_13basic_ostreamIT_T0_EES7_PKS4_m, symObjAddr: 0x3D1C, symBinAddr: 0x100006968, symSize: 0x1F4 }
  - { offsetInCU: 0x6CE0, offset: 0x6CE0, size: 0x8, addend: 0x0, symName: __ZNSt3__1lsB8ne180100INS_11char_traitsIcEEEERNS_13basic_ostreamIcT_EES6_PKc, symObjAddr: 0x1C8, symBinAddr: 0x100002E14, symSize: 0x48 }
  - { offsetInCU: 0x6D26, offset: 0x6D26, size: 0x8, addend: 0x0, symName: __ZNSt3__1neB8ne180100ERKNS_16__deque_iteratorIiPiRiPS1_lLl1024EEES6_, symObjAddr: 0x820, symBinAddr: 0x10000346C, symSize: 0x34 }
  - { offsetInCU: 0x6D63, offset: 0x6D63, size: 0x8, addend: 0x0, symName: __ZNSt3__1eqB8ne180100ERKNS_16__deque_iteratorIiPiRiPS1_lLl1024EEES6_, symObjAddr: 0xAC8, symBinAddr: 0x100003714, symSize: 0x30 }
  - { offsetInCU: 0x6DA0, offset: 0x6DA0, size: 0x8, addend: 0x0, symName: __ZNSt3__130__libcpp_is_constant_evaluatedB8ne180100Ev, symObjAddr: 0xC00, symBinAddr: 0x10000384C, symSize: 0xC }
  - { offsetInCU: 0x6DBD, offset: 0x6DBD, size: 0x8, addend: 0x0, symName: __ZNSt3__119__libcpp_deallocateB8ne180100EPvmm, symObjAddr: 0xC0C, symBinAddr: 0x100003858, symSize: 0x30 }
  - { offsetInCU: 0x6E05, offset: 0x6E05, size: 0x8, addend: 0x0, symName: __ZNSt3__127__do_deallocate_handle_sizeB8ne180100IJEEEvPvmDpT_, symObjAddr: 0xC3C, symBinAddr: 0x100003888, symSize: 0x28 }
  - { offsetInCU: 0x6E43, offset: 0x6E43, size: 0x8, addend: 0x0, symName: __ZNSt3__124__libcpp_operator_deleteB8ne180100IJPvEEEvDpT_, symObjAddr: 0xC64, symBinAddr: 0x1000038B0, symSize: 0x24 }
  - { offsetInCU: 0x6E78, offset: 0x6E78, size: 0x8, addend: 0x0, symName: __ZNSt3__112__to_addressB8ne180100IPiEEPT_S3_, symObjAddr: 0xEF0, symBinAddr: 0x100003B3C, symSize: 0x14 }
  - { offsetInCU: 0x6EAD, offset: 0x6EAD, size: 0x8, addend: 0x0, symName: __ZNSt3__13maxB8ne180100ImEERKT_S3_S3_, symObjAddr: 0x1D44, symBinAddr: 0x100004990, symSize: 0x2C }
  - { offsetInCU: 0x736F, offset: 0x736F, size: 0x8, addend: 0x0, symName: __ZNSt3__14swapB8ne180100IPPiEEvRT_S4_, symObjAddr: 0x2374, symBinAddr: 0x100004FC0, symSize: 0x3C }
  - { offsetInCU: 0x73C0, offset: 0x73C0, size: 0x8, addend: 0x0, symName: __ZNSt3__14moveB8ne180100IPPiS2_EET0_T_S4_S3_, symObjAddr: 0x2458, symBinAddr: 0x1000050A4, symSize: 0x40 }
  - { offsetInCU: 0x741A, offset: 0x741A, size: 0x8, addend: 0x0, symName: __ZNSt3__16__moveB8ne180100INS_17_ClassicAlgPolicyEPPiS3_S3_EENS_4pairIT0_T2_EES5_T1_S6_, symObjAddr: 0x2560, symBinAddr: 0x1000051AC, symSize: 0x44 }
  - { offsetInCU: 0x7486, offset: 0x7486, size: 0x8, addend: 0x0, symName: __ZNSt3__123__dispatch_copy_or_moveB8ne180100INS_17_ClassicAlgPolicyENS_11__move_loopIS1_EENS_14__move_trivialEPPiS6_S6_EENS_4pairIT2_T4_EES8_T3_S9_, symObjAddr: 0x25A4, symBinAddr: 0x1000051F0, symSize: 0x44 }
  - { offsetInCU: 0x7504, offset: 0x7504, size: 0x8, addend: 0x0, symName: __ZNSt3__121__unwrap_and_dispatchB8ne180100INS_10__overloadINS_11__move_loopINS_17_ClassicAlgPolicyEEENS_14__move_trivialEEEPPiS8_S8_Li0EEENS_4pairIT0_T2_EESA_T1_SB_, symObjAddr: 0x25E8, symBinAddr: 0x100005234, symSize: 0xB4 }
  - { offsetInCU: 0x7592, offset: 0x7592, size: 0x8, addend: 0x0, symName: __ZNSt3__114__unwrap_rangeB8ne180100IPPiS2_EENS_4pairIT0_S4_EET_S6_, symObjAddr: 0x269C, symBinAddr: 0x1000052E8, symSize: 0x60 }
  - { offsetInCU: 0x76D1, offset: 0x76D1, size: 0x8, addend: 0x0, symName: __ZNSt3__113__unwrap_iterB8ne180100IPPiNS_18__unwrap_iter_implIS2_Lb1EEELi0EEEDTclsrT0_8__unwrapclsr3stdE7declvalIT_EEEES6_, symObjAddr: 0x2744, symBinAddr: 0x100005390, symSize: 0x24 }
  - { offsetInCU: 0x7715, offset: 0x7715, size: 0x8, addend: 0x0, symName: __ZNSt3__19make_pairB8ne180100IPPiS2_EENS_4pairINS_18__unwrap_ref_decayIT_E4typeENS4_IT0_E4typeEEEOS5_OS8_, symObjAddr: 0x2768, symBinAddr: 0x1000053B4, symSize: 0x38 }
  - { offsetInCU: 0x7764, offset: 0x7764, size: 0x8, addend: 0x0, symName: __ZNSt3__114__rewrap_rangeB8ne180100IPPiS2_EET_S3_T0_, symObjAddr: 0x27A0, symBinAddr: 0x1000053EC, symSize: 0x2C }
  - { offsetInCU: 0x77B0, offset: 0x77B0, size: 0x8, addend: 0x0, symName: __ZNSt3__113__rewrap_iterB8ne180100IPPiS2_NS_18__unwrap_iter_implIS2_Lb1EEEEET_S5_T0_, symObjAddr: 0x27CC, symBinAddr: 0x100005418, symSize: 0x50 }
  - { offsetInCU: 0x7805, offset: 0x7805, size: 0x8, addend: 0x0, symName: __ZNSt3__119__copy_trivial_implB8ne180100IPiS1_EENS_4pairIPT_PT0_EES4_S4_S6_, symObjAddr: 0x281C, symBinAddr: 0x100005468, symSize: 0x80 }
  - { offsetInCU: 0x786D, offset: 0x786D, size: 0x8, addend: 0x0, symName: __ZNSt3__119__constexpr_memmoveB8ne180100IPiS1_Li0EEEPT_S3_PT0_NS_15__element_countE, symObjAddr: 0x289C, symBinAddr: 0x1000054E8, symSize: 0xA0 }
  - { offsetInCU: 0x78DB, offset: 0x78DB, size: 0x8, addend: 0x0, symName: __ZNSt3__19make_pairB8ne180100IRPPiS2_EENS_4pairINS_18__unwrap_ref_decayIT_E4typeENS5_IT0_E4typeEEEOS6_OS9_, symObjAddr: 0x293C, symBinAddr: 0x100005588, symSize: 0x38 }
  - { offsetInCU: 0x797D, offset: 0x797D, size: 0x8, addend: 0x0, symName: __ZNSt3__18distanceB8ne180100INS_13move_iteratorIPPiEEEENS_15iterator_traitsIT_E15difference_typeES6_S6_, symObjAddr: 0x2B3C, symBinAddr: 0x100005788, symSize: 0x3C }
  - { offsetInCU: 0x79C0, offset: 0x79C0, size: 0x8, addend: 0x0, symName: __ZNSt3__110__distanceB8ne180100INS_13move_iteratorIPPiEEEENS_15iterator_traitsIT_E15difference_typeES6_S6_NS_26random_access_iterator_tagE, symObjAddr: 0x2D40, symBinAddr: 0x10000598C, symSize: 0x30 }
  - { offsetInCU: 0x7A0D, offset: 0x7A0D, size: 0x8, addend: 0x0, symName: __ZNSt3__1miB8ne180100IPPiS2_EENS_13move_iteratorIT_E15difference_typeERKS5_RKNS3_IT0_EE, symObjAddr: 0x2D70, symBinAddr: 0x1000059BC, symSize: 0x48 }
  - { offsetInCU: 0x7A5C, offset: 0x7A5C, size: 0x8, addend: 0x0, symName: __ZNSt3__117__libcpp_allocateB8ne180100Emm, symObjAddr: 0x2EF4, symBinAddr: 0x100005B40, symSize: 0x28 }
  - { offsetInCU: 0x7A99, offset: 0x7A99, size: 0x8, addend: 0x0, symName: __ZNSt3__121__libcpp_operator_newB8ne180100IJmEEEPvDpT_, symObjAddr: 0x2F30, symBinAddr: 0x100005B7C, symSize: 0x24 }
  - { offsetInCU: 0x7AD2, offset: 0x7AD2, size: 0x8, addend: 0x0, symName: __ZNSt3__113move_backwardB8ne180100IPPiS2_EET0_T_S4_S3_, symObjAddr: 0x2F54, symBinAddr: 0x100005BA0, symSize: 0x40 }
  - { offsetInCU: 0x7B2C, offset: 0x7B2C, size: 0x8, addend: 0x0, symName: __ZNSt3__115__move_backwardB8ne180100INS_17_ClassicAlgPolicyEPPiS3_S3_EENS_4pairIT0_T2_EES5_T1_S6_, symObjAddr: 0x2F94, symBinAddr: 0x100005BE0, symSize: 0x44 }
  - { offsetInCU: 0x7B98, offset: 0x7B98, size: 0x8, addend: 0x0, symName: __ZNSt3__123__dispatch_copy_or_moveB8ne180100INS_17_ClassicAlgPolicyENS_20__move_backward_loopIS1_EENS_23__move_backward_trivialEPPiS6_S6_EENS_4pairIT2_T4_EES8_T3_S9_, symObjAddr: 0x2FD8, symBinAddr: 0x100005C24, symSize: 0x44 }
  - { offsetInCU: 0x7C16, offset: 0x7C16, size: 0x8, addend: 0x0, symName: __ZNSt3__121__unwrap_and_dispatchB8ne180100INS_10__overloadINS_20__move_backward_loopINS_17_ClassicAlgPolicyEEENS_23__move_backward_trivialEEEPPiS8_S8_Li0EEENS_4pairIT0_T2_EESA_T1_SB_, symObjAddr: 0x301C, symBinAddr: 0x100005C68, symSize: 0xB4 }
  - { offsetInCU: 0x7CEA, offset: 0x7CEA, size: 0x8, addend: 0x0, symName: __ZNSt3__128__copy_backward_trivial_implB8ne180100IPiS1_EENS_4pairIPT_PT0_EES4_S4_S6_, symObjAddr: 0x3118, symBinAddr: 0x100005D64, symSize: 0x90 }
  - { offsetInCU: 0x7D52, offset: 0x7D52, size: 0x8, addend: 0x0, symName: __ZNSt3__19make_pairB8ne180100IRPPiS3_EENS_4pairINS_18__unwrap_ref_decayIT_E4typeENS5_IT0_E4typeEEEOS6_OS9_, symObjAddr: 0x31A8, symBinAddr: 0x100005DF4, symSize: 0x38 }
  - { offsetInCU: 0x7DA1, offset: 0x7DA1, size: 0x8, addend: 0x0, symName: __ZNSt3__13maxB8ne180100ImNS_6__lessIvvEEEERKT_S5_S5_T0_, symObjAddr: 0x31E0, symBinAddr: 0x100005E2C, symSize: 0x54 }
  - { offsetInCU: 0x7E40, offset: 0x7E40, size: 0x8, addend: 0x0, symName: __ZNSt3__119__allocate_at_leastB8ne180100INS_9allocatorIPiEEEENS_19__allocation_resultINS_16allocator_traitsIT_E7pointerEEERS6_m, symObjAddr: 0x3378, symBinAddr: 0x100005FC4, symSize: 0x40 }
  - { offsetInCU: 0x7E83, offset: 0x7E83, size: 0x8, addend: 0x0, symName: __ZNSt3__112__to_addressB8ne180100IiEEPT_S2_, symObjAddr: 0x3B94, symBinAddr: 0x1000067E0, symSize: 0x14 }
  - { offsetInCU: 0x7EB8, offset: 0x7EB8, size: 0x8, addend: 0x0, symName: __ZNSt3__116__pad_and_outputB8ne180100IcNS_11char_traitsIcEEEENS_19ostreambuf_iteratorIT_T0_EES6_PKS4_S8_S8_RNS_8ios_baseES4_, symObjAddr: 0x3F74, symBinAddr: 0x100006BC0, symSize: 0x248 }
  - { offsetInCU: 0x7F87, offset: 0x7F87, size: 0x8, addend: 0x0, symName: __ZNSt3__112__to_addressB8ne180100IKcEEPT_S3_, symObjAddr: 0x44E4, symBinAddr: 0x100007130, symSize: 0x14 }
  - { offsetInCU: 0x7FEF, offset: 0x7FEF, size: 0x8, addend: 0x0, symName: __ZNSt3__19use_facetB8ne180100INS_5ctypeIcEEEERKT_RKNS_6localeE, symObjAddr: 0x47DC, symBinAddr: 0x100007428, symSize: 0x2C }
  - { offsetInCU: 0x84BC, offset: 0x84BC, size: 0x8, addend: 0x0, symName: __ZNSt3__118__constexpr_strlenB8ne180100EPKc, symObjAddr: 0x4874, symBinAddr: 0x1000074C0, symSize: 0x24 }
  - { offsetInCU: 0x85F9, offset: 0x85F9, size: 0x8, addend: 0x0, symName: __ZSt28__throw_bad_array_new_lengthB8ne180100v, symObjAddr: 0x2EC0, symBinAddr: 0x100005B0C, symSize: 0x34 }
  - { offsetInCU: 0xAE17, offset: 0xAE17, size: 0x8, addend: 0x0, symName: __Z14insertAtBottomRNSt3__15stackIiNS_5dequeIiNS_9allocatorIiEEEEEEi, symObjAddr: 0x0, symBinAddr: 0x100002C4C, symSize: 0x7C }
  - { offsetInCU: 0xAE89, offset: 0xAE89, size: 0x8, addend: 0x0, symName: __ZNKSt3__15stackIiNS_5dequeIiNS_9allocatorIiEEEEE5emptyB8ne180100Ev, symObjAddr: 0x7C, symBinAddr: 0x100002CC8, symSize: 0x28 }
  - { offsetInCU: 0xAEAF, offset: 0xAEAF, size: 0x8, addend: 0x0, symName: __ZNSt3__15stackIiNS_5dequeIiNS_9allocatorIiEEEEE4pushB8ne180100ERKi, symObjAddr: 0xA4, symBinAddr: 0x100002CF0, symSize: 0x2C }
  - { offsetInCU: 0xAEE3, offset: 0xAEE3, size: 0x8, addend: 0x0, symName: __ZNSt3__15stackIiNS_5dequeIiNS_9allocatorIiEEEEE3topB8ne180100Ev, symObjAddr: 0xD0, symBinAddr: 0x100002D1C, symSize: 0x24 }
  - { offsetInCU: 0xAF09, offset: 0xAF09, size: 0x8, addend: 0x0, symName: __ZNSt3__15stackIiNS_5dequeIiNS_9allocatorIiEEEEE3popB8ne180100Ev, symObjAddr: 0xF4, symBinAddr: 0x100002D40, symSize: 0x24 }
  - { offsetInCU: 0xAF2F, offset: 0xAF2F, size: 0x8, addend: 0x0, symName: __Z12reverseStackRNSt3__15stackIiNS_5dequeIiNS_9allocatorIiEEEEEE, symObjAddr: 0x118, symBinAddr: 0x100002D64, symSize: 0xB0 }
  - { offsetInCU: 0xAF66, offset: 0xAF66, size: 0x8, addend: 0x0, symName: _main, symObjAddr: 0x210, symBinAddr: 0x100002E5C, symSize: 0xB8 }
  - { offsetInCU: 0xAFC0, offset: 0xAFC0, size: 0x8, addend: 0x0, symName: __ZNSt3__15stackIiNS_5dequeIiNS_9allocatorIiEEEEEC1B8ne180100Ev, symObjAddr: 0x2C8, symBinAddr: 0x100002F14, symSize: 0x2C }
  - { offsetInCU: 0xAFEA, offset: 0xAFEA, size: 0x8, addend: 0x0, symName: __ZNSt3__15stackIiNS_5dequeIiNS_9allocatorIiEEEEED1Ev, symObjAddr: 0x2F4, symBinAddr: 0x100002F40, symSize: 0x2C }
  - { offsetInCU: 0xB016, offset: 0xB016, size: 0x8, addend: 0x0, symName: __ZNSt3__15stackIiNS_5dequeIiNS_9allocatorIiEEEEED2Ev, symObjAddr: 0x32C, symBinAddr: 0x100002F78, symSize: 0x2C }
  - { offsetInCU: 0xB042, offset: 0xB042, size: 0x8, addend: 0x0, symName: __ZNSt3__15dequeIiNS_9allocatorIiEEED1B8ne180100Ev, symObjAddr: 0x358, symBinAddr: 0x100002FA4, symSize: 0x2C }
  - { offsetInCU: 0xB06C, offset: 0xB06C, size: 0x8, addend: 0x0, symName: __ZNSt3__15dequeIiNS_9allocatorIiEEED2B8ne180100Ev, symObjAddr: 0x384, symBinAddr: 0x100002FD0, symSize: 0xA4 }
  - { offsetInCU: 0xB0C3, offset: 0xB0C3, size: 0x8, addend: 0x0, symName: __ZNSt3__15dequeIiNS_9allocatorIiEEE5clearEv, symObjAddr: 0x428, symBinAddr: 0x100003074, symSize: 0x1A8 }
  - { offsetInCU: 0xB127, offset: 0xB127, size: 0x8, addend: 0x0, symName: __ZNKSt3__15dequeIiNS_9allocatorIiEEE17__annotate_deleteB8ne180100Ev, symObjAddr: 0x5D0, symBinAddr: 0x10000321C, symSize: 0x10 }
  - { offsetInCU: 0xB14D, offset: 0xB14D, size: 0x8, addend: 0x0, symName: __ZNSt3__114__split_bufferIPiNS_9allocatorIS1_EEE5beginB8ne180100Ev, symObjAddr: 0x5E0, symBinAddr: 0x10000322C, symSize: 0x18 }
  - { offsetInCU: 0xB173, offset: 0xB173, size: 0x8, addend: 0x0, symName: __ZNSt3__114__split_bufferIPiNS_9allocatorIS1_EEE3endB8ne180100Ev, symObjAddr: 0x5F8, symBinAddr: 0x100003244, symSize: 0x18 }
  - { offsetInCU: 0xB199, offset: 0xB199, size: 0x8, addend: 0x0, symName: __ZNSt3__116allocator_traitsINS_9allocatorIiEEE10deallocateB8ne180100ERS2_Pim, symObjAddr: 0x610, symBinAddr: 0x10000325C, symSize: 0x34 }
  - { offsetInCU: 0xB1DB, offset: 0xB1DB, size: 0x8, addend: 0x0, symName: __ZNSt3__15dequeIiNS_9allocatorIiEEE7__allocB8ne180100Ev, symObjAddr: 0x644, symBinAddr: 0x100003290, symSize: 0x28 }
  - { offsetInCU: 0xB201, offset: 0xB201, size: 0x8, addend: 0x0, symName: __ZNSt3__114__split_bufferIPiNS_9allocatorIS1_EEED1Ev, symObjAddr: 0x66C, symBinAddr: 0x1000032B8, symSize: 0x2C }
  - { offsetInCU: 0xB22D, offset: 0xB22D, size: 0x8, addend: 0x0, symName: __ZNSt3__15dequeIiNS_9allocatorIiEEE5beginB8ne180100Ev, symObjAddr: 0x698, symBinAddr: 0x1000032E4, symSize: 0xCC }
  - { offsetInCU: 0xB262, offset: 0xB262, size: 0x8, addend: 0x0, symName: __ZNSt3__15dequeIiNS_9allocatorIiEEE3endB8ne180100Ev, symObjAddr: 0x764, symBinAddr: 0x1000033B0, symSize: 0xBC }
  - { offsetInCU: 0xB2A6, offset: 0xB2A6, size: 0x8, addend: 0x0, symName: __ZNSt3__116allocator_traitsINS_9allocatorIiEEE7destroyB8ne180100IivEEvRS2_PT_, symObjAddr: 0x854, symBinAddr: 0x1000034A0, symSize: 0x2C }
  - { offsetInCU: 0xB2E3, offset: 0xB2E3, size: 0x8, addend: 0x0, symName: __ZNKSt3__116__deque_iteratorIiPiRiPS1_lLl1024EEdeB8ne180100Ev, symObjAddr: 0x880, symBinAddr: 0x1000034CC, symSize: 0x18 }
  - { offsetInCU: 0xB309, offset: 0xB309, size: 0x8, addend: 0x0, symName: __ZNSt3__116__deque_iteratorIiPiRiPS1_lLl1024EEppB8ne180100Ev, symObjAddr: 0x898, symBinAddr: 0x1000034E4, symSize: 0x70 }
  - { offsetInCU: 0xB32F, offset: 0xB32F, size: 0x8, addend: 0x0, symName: __ZNSt3__15dequeIiNS_9allocatorIiEEE6__sizeB8ne180100Ev, symObjAddr: 0x908, symBinAddr: 0x100003554, symSize: 0x28 }
  - { offsetInCU: 0xB355, offset: 0xB355, size: 0x8, addend: 0x0, symName: __ZNKSt3__114__split_bufferIPiNS_9allocatorIS1_EEE4sizeB8ne180100Ev, symObjAddr: 0x930, symBinAddr: 0x10000357C, symSize: 0x28 }
  - { offsetInCU: 0xB37B, offset: 0xB37B, size: 0x8, addend: 0x0, symName: __ZNSt3__114__split_bufferIPiNS_9allocatorIS1_EEE5frontB8ne180100Ev, symObjAddr: 0x958, symBinAddr: 0x1000035A4, symSize: 0x18 }
  - { offsetInCU: 0xB3A1, offset: 0xB3A1, size: 0x8, addend: 0x0, symName: __ZNSt3__114__split_bufferIPiNS_9allocatorIS1_EEE9pop_frontB8ne180100Ev, symObjAddr: 0x970, symBinAddr: 0x1000035BC, symSize: 0x2C }
  - { offsetInCU: 0xB3C7, offset: 0xB3C7, size: 0x8, addend: 0x0, symName: __ZNKSt3__15dequeIiNS_9allocatorIiEEE14__annotate_newB8ne180100Em, symObjAddr: 0x99C, symBinAddr: 0x1000035E8, symSize: 0x14 }
  - { offsetInCU: 0xB3FC, offset: 0xB3FC, size: 0x8, addend: 0x0, symName: __ZNKSt3__114__split_bufferIPiNS_9allocatorIS1_EEE5emptyB8ne180100Ev, symObjAddr: 0x9B0, symBinAddr: 0x1000035FC, symSize: 0x28 }
  - { offsetInCU: 0xB422, offset: 0xB422, size: 0x8, addend: 0x0, symName: __ZNSt3__116__deque_iteratorIiPiRiPS1_lLl1024EEC1B8ne180100ES3_S1_, symObjAddr: 0x9D8, symBinAddr: 0x100003624, symSize: 0x3C }
  - { offsetInCU: 0xB46A, offset: 0xB46A, size: 0x8, addend: 0x0, symName: __ZNSt3__116__deque_iteratorIiPiRiPS1_lLl1024EEC2B8ne180100ES3_S1_, symObjAddr: 0xA14, symBinAddr: 0x100003660, symSize: 0x2C }
  - { offsetInCU: 0xB4B2, offset: 0xB4B2, size: 0x8, addend: 0x0, symName: __ZNKSt3__15dequeIiNS_9allocatorIiEEE4sizeB8ne180100Ev, symObjAddr: 0xA40, symBinAddr: 0x10000368C, symSize: 0x28 }
  - { offsetInCU: 0xB4D8, offset: 0xB4D8, size: 0x8, addend: 0x0, symName: __ZNKSt3__15dequeIiNS_9allocatorIiEEE6__sizeB8ne180100Ev, symObjAddr: 0xA68, symBinAddr: 0x1000036B4, symSize: 0x28 }
  - { offsetInCU: 0xB4FE, offset: 0xB4FE, size: 0x8, addend: 0x0, symName: __ZNKSt3__117__compressed_pairImNS_9allocatorIiEEE5firstB8ne180100Ev, symObjAddr: 0xA90, symBinAddr: 0x1000036DC, symSize: 0x24 }
  - { offsetInCU: 0xB524, offset: 0xB524, size: 0x8, addend: 0x0, symName: __ZNKSt3__122__compressed_pair_elemImLi0ELb0EE5__getB8ne180100Ev, symObjAddr: 0xAB4, symBinAddr: 0x100003700, symSize: 0x14 }
  - { offsetInCU: 0xB54A, offset: 0xB54A, size: 0x8, addend: 0x0, symName: __ZNSt3__19allocatorIiE7destroyB8ne180100EPi, symObjAddr: 0xAF8, symBinAddr: 0x100003744, symSize: 0x14 }
  - { offsetInCU: 0xB57E, offset: 0xB57E, size: 0x8, addend: 0x0, symName: __ZNSt3__117__compressed_pairImNS_9allocatorIiEEE5firstB8ne180100Ev, symObjAddr: 0xB0C, symBinAddr: 0x100003758, symSize: 0x24 }
  - { offsetInCU: 0xB5A4, offset: 0xB5A4, size: 0x8, addend: 0x0, symName: __ZNSt3__122__compressed_pair_elemImLi0ELb0EE5__getB8ne180100Ev, symObjAddr: 0xB30, symBinAddr: 0x10000377C, symSize: 0x14 }
  - { offsetInCU: 0xB5CA, offset: 0xB5CA, size: 0x8, addend: 0x0, symName: __ZNSt3__114__split_bufferIPiNS_9allocatorIS1_EEE19__destruct_at_beginB8ne180100EPS1_, symObjAddr: 0xB44, symBinAddr: 0x100003790, symSize: 0x2C }
  - { offsetInCU: 0xB5FE, offset: 0xB5FE, size: 0x8, addend: 0x0, symName: __ZNSt3__114__split_bufferIPiNS_9allocatorIS1_EEE19__destruct_at_beginEPS1_NS_17integral_constantIbLb1EEE, symObjAddr: 0xB70, symBinAddr: 0x1000037BC, symSize: 0x20 }
  - { offsetInCU: 0xB63E, offset: 0xB63E, size: 0x8, addend: 0x0, symName: __ZNSt3__19allocatorIiE10deallocateB8ne180100EPim, symObjAddr: 0xB90, symBinAddr: 0x1000037DC, symSize: 0x70 }
  - { offsetInCU: 0xB680, offset: 0xB680, size: 0x8, addend: 0x0, symName: __ZNSt3__117__compressed_pairImNS_9allocatorIiEEE6secondB8ne180100Ev, symObjAddr: 0xC88, symBinAddr: 0x1000038D4, symSize: 0x24 }
  - { offsetInCU: 0xB6A6, offset: 0xB6A6, size: 0x8, addend: 0x0, symName: __ZNSt3__122__compressed_pair_elemINS_9allocatorIiEELi1ELb1EE5__getB8ne180100Ev, symObjAddr: 0xCAC, symBinAddr: 0x1000038F8, symSize: 0x14 }
  - { offsetInCU: 0xB6CC, offset: 0xB6CC, size: 0x8, addend: 0x0, symName: __ZNSt3__114__split_bufferIPiNS_9allocatorIS1_EEED2Ev, symObjAddr: 0xCC0, symBinAddr: 0x10000390C, symSize: 0x80 }
  - { offsetInCU: 0xB6F8, offset: 0xB6F8, size: 0x8, addend: 0x0, symName: __ZNSt3__114__split_bufferIPiNS_9allocatorIS1_EEE5clearB8ne180100Ev, symObjAddr: 0xD40, symBinAddr: 0x10000398C, symSize: 0x28 }
  - { offsetInCU: 0xB71E, offset: 0xB71E, size: 0x8, addend: 0x0, symName: __ZNSt3__116allocator_traitsINS_9allocatorIPiEEE10deallocateB8ne180100ERS3_PS2_m, symObjAddr: 0xD68, symBinAddr: 0x1000039B4, symSize: 0x34 }
  - { offsetInCU: 0xB760, offset: 0xB760, size: 0x8, addend: 0x0, symName: __ZNSt3__114__split_bufferIPiNS_9allocatorIS1_EEE7__allocB8ne180100Ev, symObjAddr: 0xD9C, symBinAddr: 0x1000039E8, symSize: 0x28 }
  - { offsetInCU: 0xB786, offset: 0xB786, size: 0x8, addend: 0x0, symName: __ZNKSt3__114__split_bufferIPiNS_9allocatorIS1_EEE8capacityB8ne180100Ev, symObjAddr: 0xDC4, symBinAddr: 0x100003A10, symSize: 0x40 }
  - { offsetInCU: 0xB7AC, offset: 0xB7AC, size: 0x8, addend: 0x0, symName: __ZNSt3__114__split_bufferIPiNS_9allocatorIS1_EEE17__destruct_at_endB8ne180100EPS1_, symObjAddr: 0xE04, symBinAddr: 0x100003A50, symSize: 0x2C }
  - { offsetInCU: 0xB7E0, offset: 0xB7E0, size: 0x8, addend: 0x0, symName: __ZNSt3__114__split_bufferIPiNS_9allocatorIS1_EEE17__destruct_at_endB8ne180100EPS1_NS_17integral_constantIbLb0EEE, symObjAddr: 0xE30, symBinAddr: 0x100003A7C, symSize: 0x94 }
  - { offsetInCU: 0xB820, offset: 0xB820, size: 0x8, addend: 0x0, symName: __ZNSt3__116allocator_traitsINS_9allocatorIPiEEE7destroyB8ne180100IS2_vEEvRS3_PT_, symObjAddr: 0xEC4, symBinAddr: 0x100003B10, symSize: 0x2C }
  - { offsetInCU: 0xB85D, offset: 0xB85D, size: 0x8, addend: 0x0, symName: __ZNSt3__19allocatorIPiE7destroyB8ne180100EPS1_, symObjAddr: 0xF04, symBinAddr: 0x100003B50, symSize: 0x14 }
  - { offsetInCU: 0xB891, offset: 0xB891, size: 0x8, addend: 0x0, symName: __ZNSt3__19allocatorIPiE10deallocateB8ne180100EPS1_m, symObjAddr: 0xF18, symBinAddr: 0x100003B64, symSize: 0x70 }
  - { offsetInCU: 0xB8D3, offset: 0xB8D3, size: 0x8, addend: 0x0, symName: __ZNSt3__117__compressed_pairIPPiNS_9allocatorIS1_EEE6secondB8ne180100Ev, symObjAddr: 0xF88, symBinAddr: 0x100003BD4, symSize: 0x24 }
  - { offsetInCU: 0xB8F9, offset: 0xB8F9, size: 0x8, addend: 0x0, symName: __ZNSt3__122__compressed_pair_elemINS_9allocatorIPiEELi1ELb1EE5__getB8ne180100Ev, symObjAddr: 0xFAC, symBinAddr: 0x100003BF8, symSize: 0x14 }
  - { offsetInCU: 0xB91F, offset: 0xB91F, size: 0x8, addend: 0x0, symName: __ZNKSt3__114__split_bufferIPiNS_9allocatorIS1_EEE9__end_capB8ne180100Ev, symObjAddr: 0xFC0, symBinAddr: 0x100003C0C, symSize: 0x28 }
  - { offsetInCU: 0xB945, offset: 0xB945, size: 0x8, addend: 0x0, symName: __ZNKSt3__117__compressed_pairIPPiNS_9allocatorIS1_EEE5firstB8ne180100Ev, symObjAddr: 0xFE8, symBinAddr: 0x100003C34, symSize: 0x24 }
  - { offsetInCU: 0xB96B, offset: 0xB96B, size: 0x8, addend: 0x0, symName: __ZNKSt3__122__compressed_pair_elemIPPiLi0ELb0EE5__getB8ne180100Ev, symObjAddr: 0x100C, symBinAddr: 0x100003C58, symSize: 0x14 }
  - { offsetInCU: 0xB991, offset: 0xB991, size: 0x8, addend: 0x0, symName: __ZNKSt3__15dequeIiNS_9allocatorIiEEE5emptyB8ne180100Ev, symObjAddr: 0x1020, symBinAddr: 0x100003C6C, symSize: 0x30 }
  - { offsetInCU: 0xB9B7, offset: 0xB9B7, size: 0x8, addend: 0x0, symName: __ZNSt3__15dequeIiNS_9allocatorIiEEE9push_backERKi, symObjAddr: 0x1050, symBinAddr: 0x100003C9C, symSize: 0xAC }
  - { offsetInCU: 0xB9FD, offset: 0xB9FD, size: 0x8, addend: 0x0, symName: __ZNKSt3__15dequeIiNS_9allocatorIiEEE12__back_spareB8ne180100Ev, symObjAddr: 0x10FC, symBinAddr: 0x100003D48, symSize: 0x54 }
  - { offsetInCU: 0xBA23, offset: 0xBA23, size: 0x8, addend: 0x0, symName: __ZNSt3__15dequeIiNS_9allocatorIiEEE19__add_back_capacityEv, symObjAddr: 0x1150, symBinAddr: 0x100003D9C, symSize: 0x364 }
  - { offsetInCU: 0xBADB, offset: 0xBADB, size: 0x8, addend: 0x0, symName: __ZNKSt3__15dequeIiNS_9allocatorIiEEE24__annotate_increase_backB8ne180100Em, symObjAddr: 0x14B4, symBinAddr: 0x100004100, symSize: 0x14 }
  - { offsetInCU: 0xBB10, offset: 0xBB10, size: 0x8, addend: 0x0, symName: __ZNSt3__116allocator_traitsINS_9allocatorIiEEE9constructB8ne180100IiJRKiEvEEvRS2_PT_DpOT0_, symObjAddr: 0x14C8, symBinAddr: 0x100004114, symSize: 0x34 }
  - { offsetInCU: 0xBB67, offset: 0xBB67, size: 0x8, addend: 0x0, symName: __ZNKSt3__15dequeIiNS_9allocatorIiEEE10__capacityB8ne180100Ev, symObjAddr: 0x14FC, symBinAddr: 0x100004148, symSize: 0x60 }
  - { offsetInCU: 0xBB8D, offset: 0xBB8D, size: 0x8, addend: 0x0, symName: __ZNKSt3__15dequeIiNS_9allocatorIiEEE13__front_spareB8ne180100Ev, symObjAddr: 0x155C, symBinAddr: 0x1000041A8, symSize: 0x18 }
  - { offsetInCU: 0xBBB3, offset: 0xBBB3, size: 0x8, addend: 0x0, symName: __ZNSt3__114__split_bufferIPiNS_9allocatorIS1_EEE9push_backB8ne180100ERKS1_, symObjAddr: 0x1574, symBinAddr: 0x1000041C0, symSize: 0x270 }
  - { offsetInCU: 0xBC2C, offset: 0xBC2C, size: 0x8, addend: 0x0, symName: __ZNKSt3__114__split_bufferIPiNS_9allocatorIS1_EEE12__back_spareB8ne180100Ev, symObjAddr: 0x17E4, symBinAddr: 0x100004430, symSize: 0x40 }
  - { offsetInCU: 0xBC52, offset: 0xBC52, size: 0x8, addend: 0x0, symName: __ZNSt3__114__split_bufferIPiNS_9allocatorIS1_EEE9push_backEOS1_, symObjAddr: 0x1824, symBinAddr: 0x100004470, symSize: 0x270 }
  - { offsetInCU: 0xBCCB, offset: 0xBCCB, size: 0x8, addend: 0x0, symName: __ZNSt3__116allocator_traitsINS_9allocatorIiEEE8allocateB8ne180100ERS2_m, symObjAddr: 0x1A94, symBinAddr: 0x1000046E0, symSize: 0x2C }
  - { offsetInCU: 0xBCFE, offset: 0xBCFE, size: 0x8, addend: 0x0, symName: __ZNSt3__114__split_bufferIPiNS_9allocatorIS1_EEE10push_frontEOS1_, symObjAddr: 0x1AC0, symBinAddr: 0x10000470C, symSize: 0x26C }
  - { offsetInCU: 0xBD77, offset: 0xBD77, size: 0x8, addend: 0x0, symName: __ZNKSt3__15dequeIiNS_9allocatorIiEEE22__annotate_whole_blockB8ne180100EmNS3_22__asan_annotation_typeE, symObjAddr: 0x1D2C, symBinAddr: 0x100004978, symSize: 0x18 }
  - { offsetInCU: 0xBDBB, offset: 0xBDBB, size: 0x8, addend: 0x0, symName: __ZNSt3__114__split_bufferIPiRNS_9allocatorIS1_EEEC1EmmS4_, symObjAddr: 0x1D70, symBinAddr: 0x1000049BC, symSize: 0x44 }
  - { offsetInCU: 0xBE16, offset: 0xBE16, size: 0x8, addend: 0x0, symName: __ZNSt3__122__allocator_destructorINS_9allocatorIiEEEC1B8ne180100ERS2_m, symObjAddr: 0x1DB4, symBinAddr: 0x100004A00, symSize: 0x3C }
  - { offsetInCU: 0xBEDE, offset: 0xBEDE, size: 0x8, addend: 0x0, symName: __ZNSt3__110unique_ptrIPiNS_22__allocator_destructorINS_9allocatorIiEEEEEC1B8ne180100ILb1EvEES1_NS_16__dependent_typeINS_27__unique_ptr_deleter_sfinaeIS5_EEXT_EE20__good_rval_ref_typeE, symObjAddr: 0x1DF0, symBinAddr: 0x100004A3C, symSize: 0x3C }
  - { offsetInCU: 0xBF2F, offset: 0xBF2F, size: 0x8, addend: 0x0, symName: __ZNSt3__114__split_bufferIPiRNS_9allocatorIS1_EEE9push_backEOS1_, symObjAddr: 0x1E2C, symBinAddr: 0x100004A78, symSize: 0x270 }
  - { offsetInCU: 0xBFA8, offset: 0xBFA8, size: 0x8, addend: 0x0, symName: __ZNKSt3__110unique_ptrIPiNS_22__allocator_destructorINS_9allocatorIiEEEEE3getB8ne180100Ev, symObjAddr: 0x209C, symBinAddr: 0x100004CE8, symSize: 0x28 }
  - { offsetInCU: 0xBFCE, offset: 0xBFCE, size: 0x8, addend: 0x0, symName: __ZNSt3__110unique_ptrIPiNS_22__allocator_destructorINS_9allocatorIiEEEEE7releaseB8ne180100Ev, symObjAddr: 0x20C4, symBinAddr: 0x100004D10, symSize: 0x44 }
  - { offsetInCU: 0xC003, offset: 0xC003, size: 0x8, addend: 0x0, symName: __ZNSt3__114__split_bufferIPiRNS_9allocatorIS1_EEE10push_frontERKS1_, symObjAddr: 0x2108, symBinAddr: 0x100004D54, symSize: 0x26C }
  - { offsetInCU: 0xC07C, offset: 0xC07C, size: 0x8, addend: 0x0, symName: __ZNSt3__114__split_bufferIPiNS_9allocatorIS1_EEE9__end_capB8ne180100Ev, symObjAddr: 0x23B0, symBinAddr: 0x100004FFC, symSize: 0x28 }
  - { offsetInCU: 0xC0A2, offset: 0xC0A2, size: 0x8, addend: 0x0, symName: __ZNSt3__114__split_bufferIPiRNS_9allocatorIS1_EEE9__end_capB8ne180100Ev, symObjAddr: 0x23D8, symBinAddr: 0x100005024, symSize: 0x28 }
  - { offsetInCU: 0xC0C8, offset: 0xC0C8, size: 0x8, addend: 0x0, symName: __ZNSt3__110unique_ptrIPiNS_22__allocator_destructorINS_9allocatorIiEEEEED1B8ne180100Ev, symObjAddr: 0x2400, symBinAddr: 0x10000504C, symSize: 0x2C }
  - { offsetInCU: 0xC0F2, offset: 0xC0F2, size: 0x8, addend: 0x0, symName: __ZNSt3__114__split_bufferIPiRNS_9allocatorIS1_EEED1Ev, symObjAddr: 0x242C, symBinAddr: 0x100005078, symSize: 0x2C }
  - { offsetInCU: 0xC11E, offset: 0xC11E, size: 0x8, addend: 0x0, symName: __ZNSt3__114__split_bufferIPiRNS_9allocatorIS1_EEE18__construct_at_endINS_13move_iteratorIPS1_EELi0EEEvT_SA_, symObjAddr: 0x2498, symBinAddr: 0x1000050E4, symSize: 0x60 }
  - { offsetInCU: 0xC171, offset: 0xC171, size: 0x8, addend: 0x0, symName: __ZNSt3__113move_iteratorIPPiEC1B8ne180100ES2_, symObjAddr: 0x24F8, symBinAddr: 0x100005144, symSize: 0x34 }
  - { offsetInCU: 0xC1A9, offset: 0xC1A9, size: 0x8, addend: 0x0, symName: __ZNSt3__116allocator_traitsINS_9allocatorIPiEEE9constructB8ne180100IS2_JRKS2_EvEEvRS3_PT_DpOT0_, symObjAddr: 0x252C, symBinAddr: 0x100005178, symSize: 0x34 }
  - { offsetInCU: 0xC223, offset: 0xC223, size: 0x8, addend: 0x0, symName: __ZNKSt3__114__move_trivialclB8ne180100IPiS2_Li0EEENS_4pairIPT_PT0_EES5_S5_S7_, symObjAddr: 0x26FC, symBinAddr: 0x100005348, symSize: 0x48 }
  - { offsetInCU: 0xC28B, offset: 0xC28B, size: 0x8, addend: 0x0, symName: __ZNSt3__14pairIPPiS2_EC1B8ne180100ERKS2_S5_, symObjAddr: 0x2974, symBinAddr: 0x1000055C0, symSize: 0x3C }
  - { offsetInCU: 0xC2D1, offset: 0xC2D1, size: 0x8, addend: 0x0, symName: __ZNSt3__14pairIPPiS2_EC2B8ne180100ERKS2_S5_, symObjAddr: 0x29B0, symBinAddr: 0x1000055FC, symSize: 0x34 }
  - { offsetInCU: 0xC317, offset: 0xC317, size: 0x8, addend: 0x0, symName: __ZNSt3__118__unwrap_iter_implIPPiLb1EE8__unwrapB8ne180100ES2_, symObjAddr: 0x29E4, symBinAddr: 0x100005630, symSize: 0x24 }
  - { offsetInCU: 0xC33A, offset: 0xC33A, size: 0x8, addend: 0x0, symName: __ZNSt3__118__unwrap_iter_implIPPiLb1EE8__rewrapB8ne180100ES2_S2_, symObjAddr: 0x2A08, symBinAddr: 0x100005654, symSize: 0x50 }
  - { offsetInCU: 0xC36B, offset: 0xC36B, size: 0x8, addend: 0x0, symName: __ZNSt3__114__split_bufferIPiRNS_9allocatorIS1_EEE28__construct_at_end_with_sizeINS_13move_iteratorIPS1_EEEEvT_m, symObjAddr: 0x2A58, symBinAddr: 0x1000056A4, symSize: 0xE4 }
  - { offsetInCU: 0xC3D1, offset: 0xC3D1, size: 0x8, addend: 0x0, symName: __ZNSt3__114__split_bufferIPiRNS_9allocatorIS1_EEE21_ConstructTransactionC1B8ne180100EPPS1_m, symObjAddr: 0x2B78, symBinAddr: 0x1000057C4, symSize: 0x3C }
  - { offsetInCU: 0xC417, offset: 0xC417, size: 0x8, addend: 0x0, symName: __ZNSt3__116allocator_traitsINS_9allocatorIPiEEE9constructB8ne180100IS2_JS2_EvEEvRS3_PT_DpOT0_, symObjAddr: 0x2BB4, symBinAddr: 0x100005800, symSize: 0x34 }
  - { offsetInCU: 0xC46E, offset: 0xC46E, size: 0x8, addend: 0x0, symName: __ZNSt3__114__split_bufferIPiRNS_9allocatorIS1_EEE7__allocB8ne180100Ev, symObjAddr: 0x2BE8, symBinAddr: 0x100005834, symSize: 0x28 }
  - { offsetInCU: 0xC494, offset: 0xC494, size: 0x8, addend: 0x0, symName: __ZNKSt3__113move_iteratorIPPiEdeB8ne180100Ev, symObjAddr: 0x2C10, symBinAddr: 0x10000585C, symSize: 0x18 }
  - { offsetInCU: 0xC4BA, offset: 0xC4BA, size: 0x8, addend: 0x0, symName: __ZNSt3__113move_iteratorIPPiEppB8ne180100Ev, symObjAddr: 0x2C28, symBinAddr: 0x100005874, symSize: 0x20 }
  - { offsetInCU: 0xC4E0, offset: 0xC4E0, size: 0x8, addend: 0x0, symName: __ZNSt3__114__split_bufferIPiRNS_9allocatorIS1_EEE21_ConstructTransactionD1B8ne180100Ev, symObjAddr: 0x2C48, symBinAddr: 0x100005894, symSize: 0x2C }
  - { offsetInCU: 0xC50A, offset: 0xC50A, size: 0x8, addend: 0x0, symName: __ZNSt3__114__split_bufferIPiRNS_9allocatorIS1_EEE21_ConstructTransactionC2B8ne180100EPPS1_m, symObjAddr: 0x2C74, symBinAddr: 0x1000058C0, symSize: 0x44 }
  - { offsetInCU: 0xC550, offset: 0xC550, size: 0x8, addend: 0x0, symName: __ZNSt3__19allocatorIPiE9constructB8ne180100IS1_JS1_EEEvPT_DpOT0_, symObjAddr: 0x2CB8, symBinAddr: 0x100005904, symSize: 0x28 }
  - { offsetInCU: 0xC5A6, offset: 0xC5A6, size: 0x8, addend: 0x0, symName: __ZNSt3__117__compressed_pairIPPiRNS_9allocatorIS1_EEE6secondB8ne180100Ev, symObjAddr: 0x2CE0, symBinAddr: 0x10000592C, symSize: 0x28 }
  - { offsetInCU: 0xC5CC, offset: 0xC5CC, size: 0x8, addend: 0x0, symName: __ZNSt3__122__compressed_pair_elemIRNS_9allocatorIPiEELi1ELb0EE5__getB8ne180100Ev, symObjAddr: 0x2D08, symBinAddr: 0x100005954, symSize: 0x18 }
  - { offsetInCU: 0xC5F2, offset: 0xC5F2, size: 0x8, addend: 0x0, symName: __ZNSt3__114__split_bufferIPiRNS_9allocatorIS1_EEE21_ConstructTransactionD2B8ne180100Ev, symObjAddr: 0x2D20, symBinAddr: 0x10000596C, symSize: 0x20 }
  - { offsetInCU: 0xC61C, offset: 0xC61C, size: 0x8, addend: 0x0, symName: __ZNKSt3__113move_iteratorIPPiE4baseB8ne180100Ev, symObjAddr: 0x2DB8, symBinAddr: 0x100005A04, symSize: 0x18 }
  - { offsetInCU: 0xC642, offset: 0xC642, size: 0x8, addend: 0x0, symName: __ZNSt3__113move_iteratorIPPiEC2B8ne180100ES2_, symObjAddr: 0x2DD0, symBinAddr: 0x100005A1C, symSize: 0x20 }
  - { offsetInCU: 0xC67A, offset: 0xC67A, size: 0x8, addend: 0x0, symName: __ZNSt3__19allocatorIPiE9constructB8ne180100IS1_JRKS1_EEEvPT_DpOT0_, symObjAddr: 0x2DF0, symBinAddr: 0x100005A3C, symSize: 0x28 }
  - { offsetInCU: 0xC6D0, offset: 0xC6D0, size: 0x8, addend: 0x0, symName: __ZNSt3__19allocatorIiE8allocateB8ne180100Em, symObjAddr: 0x2E18, symBinAddr: 0x100005A64, symSize: 0x84 }
  - { offsetInCU: 0xC70E, offset: 0xC70E, size: 0x8, addend: 0x0, symName: __ZNSt3__116allocator_traitsINS_9allocatorIiEEE8max_sizeB8ne180100IS2_vEEmRKS2_, symObjAddr: 0x2E9C, symBinAddr: 0x100005AE8, symSize: 0x24 }
  - { offsetInCU: 0xC73C, offset: 0xC73C, size: 0x8, addend: 0x0, symName: __ZNKSt3__19allocatorIiE8max_sizeB8ne180100Ev, symObjAddr: 0x2F1C, symBinAddr: 0x100005B68, symSize: 0x14 }
  - { offsetInCU: 0xC76C, offset: 0xC76C, size: 0x8, addend: 0x0, symName: __ZNKSt3__123__move_backward_trivialclB8ne180100IPiS2_Li0EEENS_4pairIPT_PT0_EES5_S5_S7_, symObjAddr: 0x30D0, symBinAddr: 0x100005D1C, symSize: 0x48 }
  - { offsetInCU: 0xC7DE, offset: 0xC7DE, size: 0x8, addend: 0x0, symName: __ZNKSt3__16__lessIvvEclB8ne180100ImmEEbRKT_RKT0_, symObjAddr: 0x3234, symBinAddr: 0x100005E80, symSize: 0x34 }
  - { offsetInCU: 0xC832, offset: 0xC832, size: 0x8, addend: 0x0, symName: __ZNSt3__114__split_bufferIPiRNS_9allocatorIS1_EEEC2EmmS4_, symObjAddr: 0x3268, symBinAddr: 0x100005EB4, symSize: 0xD4 }
  - { offsetInCU: 0xC8AB, offset: 0xC8AB, size: 0x8, addend: 0x0, symName: __ZNSt3__117__compressed_pairIPPiRNS_9allocatorIS1_EEEC1B8ne180100IDnS5_EEOT_OT0_, symObjAddr: 0x333C, symBinAddr: 0x100005F88, symSize: 0x3C }
  - { offsetInCU: 0xC903, offset: 0xC903, size: 0x8, addend: 0x0, symName: __ZNSt3__117__compressed_pairIPPiRNS_9allocatorIS1_EEEC2B8ne180100IDnS5_EEOT_OT0_, symObjAddr: 0x33B8, symBinAddr: 0x100006004, symSize: 0x48 }
  - { offsetInCU: 0xC95B, offset: 0xC95B, size: 0x8, addend: 0x0, symName: __ZNSt3__122__compressed_pair_elemIPPiLi0ELb0EEC2B8ne180100IDnvEEOT_, symObjAddr: 0x3400, symBinAddr: 0x10000604C, symSize: 0x1C }
  - { offsetInCU: 0xC99D, offset: 0xC99D, size: 0x8, addend: 0x0, symName: __ZNSt3__122__compressed_pair_elemIRNS_9allocatorIPiEELi1ELb0EEC2B8ne180100IS4_vEEOT_, symObjAddr: 0x341C, symBinAddr: 0x100006068, symSize: 0x20 }
  - { offsetInCU: 0xC9DF, offset: 0xC9DF, size: 0x8, addend: 0x0, symName: __ZNSt3__19allocatorIPiE8allocateB8ne180100Em, symObjAddr: 0x343C, symBinAddr: 0x100006088, symSize: 0x84 }
  - { offsetInCU: 0xCA1D, offset: 0xCA1D, size: 0x8, addend: 0x0, symName: __ZNSt3__116allocator_traitsINS_9allocatorIPiEEE8max_sizeB8ne180100IS3_vEEmRKS3_, symObjAddr: 0x34C0, symBinAddr: 0x10000610C, symSize: 0x24 }
  - { offsetInCU: 0xCA4B, offset: 0xCA4B, size: 0x8, addend: 0x0, symName: __ZNKSt3__19allocatorIPiE8max_sizeB8ne180100Ev, symObjAddr: 0x34E4, symBinAddr: 0x100006130, symSize: 0x14 }
  - { offsetInCU: 0xCA71, offset: 0xCA71, size: 0x8, addend: 0x0, symName: __ZNSt3__122__allocator_destructorINS_9allocatorIiEEEC2B8ne180100ERS2_m, symObjAddr: 0x34F8, symBinAddr: 0x100006144, symSize: 0x2C }
  - { offsetInCU: 0xCAB7, offset: 0xCAB7, size: 0x8, addend: 0x0, symName: __ZNSt3__110unique_ptrIPiNS_22__allocator_destructorINS_9allocatorIiEEEEEC2B8ne180100ILb1EvEES1_NS_16__dependent_typeINS_27__unique_ptr_deleter_sfinaeIS5_EEXT_EE20__good_rval_ref_typeE, symObjAddr: 0x3524, symBinAddr: 0x100006170, symSize: 0x5C }
  - { offsetInCU: 0xCB08, offset: 0xCB08, size: 0x8, addend: 0x0, symName: __ZNSt3__117__compressed_pairIPiNS_22__allocator_destructorINS_9allocatorIiEEEEEC1B8ne180100IRS1_S5_EEOT_OT0_, symObjAddr: 0x3580, symBinAddr: 0x1000061CC, symSize: 0x3C }
  - { offsetInCU: 0xCB60, offset: 0xCB60, size: 0x8, addend: 0x0, symName: __ZNSt3__117__compressed_pairIPiNS_22__allocator_destructorINS_9allocatorIiEEEEEC2B8ne180100IRS1_S5_EEOT_OT0_, symObjAddr: 0x35BC, symBinAddr: 0x100006208, symSize: 0x48 }
  - { offsetInCU: 0xCBB8, offset: 0xCBB8, size: 0x8, addend: 0x0, symName: __ZNSt3__122__compressed_pair_elemIPiLi0ELb0EEC2B8ne180100IRS1_vEEOT_, symObjAddr: 0x3604, symBinAddr: 0x100006250, symSize: 0x24 }
  - { offsetInCU: 0xCBFA, offset: 0xCBFA, size: 0x8, addend: 0x0, symName: __ZNSt3__122__compressed_pair_elemINS_22__allocator_destructorINS_9allocatorIiEEEELi1ELb0EEC2B8ne180100IS4_vEEOT_, symObjAddr: 0x3628, symBinAddr: 0x100006274, symSize: 0x24 }
  - { offsetInCU: 0xCC3C, offset: 0xCC3C, size: 0x8, addend: 0x0, symName: __ZNKSt3__117__compressed_pairIPiNS_22__allocator_destructorINS_9allocatorIiEEEEE5firstB8ne180100Ev, symObjAddr: 0x364C, symBinAddr: 0x100006298, symSize: 0x24 }
  - { offsetInCU: 0xCC62, offset: 0xCC62, size: 0x8, addend: 0x0, symName: __ZNKSt3__122__compressed_pair_elemIPiLi0ELb0EE5__getB8ne180100Ev, symObjAddr: 0x3670, symBinAddr: 0x1000062BC, symSize: 0x14 }
  - { offsetInCU: 0xCC88, offset: 0xCC88, size: 0x8, addend: 0x0, symName: __ZNSt3__117__compressed_pairIPiNS_22__allocator_destructorINS_9allocatorIiEEEEE5firstB8ne180100Ev, symObjAddr: 0x3684, symBinAddr: 0x1000062D0, symSize: 0x24 }
  - { offsetInCU: 0xCCAE, offset: 0xCCAE, size: 0x8, addend: 0x0, symName: __ZNSt3__122__compressed_pair_elemIPiLi0ELb0EE5__getB8ne180100Ev, symObjAddr: 0x36A8, symBinAddr: 0x1000062F4, symSize: 0x14 }
  - { offsetInCU: 0xCCD4, offset: 0xCCD4, size: 0x8, addend: 0x0, symName: __ZNSt3__117__compressed_pairIPPiNS_9allocatorIS1_EEE5firstB8ne180100Ev, symObjAddr: 0x36BC, symBinAddr: 0x100006308, symSize: 0x24 }
  - { offsetInCU: 0xCCFA, offset: 0xCCFA, size: 0x8, addend: 0x0, symName: __ZNSt3__122__compressed_pair_elemIPPiLi0ELb0EE5__getB8ne180100Ev, symObjAddr: 0x36E0, symBinAddr: 0x10000632C, symSize: 0x14 }
  - { offsetInCU: 0xCD20, offset: 0xCD20, size: 0x8, addend: 0x0, symName: __ZNSt3__117__compressed_pairIPPiRNS_9allocatorIS1_EEE5firstB8ne180100Ev, symObjAddr: 0x36F4, symBinAddr: 0x100006340, symSize: 0x24 }
  - { offsetInCU: 0xCD46, offset: 0xCD46, size: 0x8, addend: 0x0, symName: __ZNSt3__110unique_ptrIPiNS_22__allocator_destructorINS_9allocatorIiEEEEED2B8ne180100Ev, symObjAddr: 0x3718, symBinAddr: 0x100006364, symSize: 0x30 }
  - { offsetInCU: 0xCD70, offset: 0xCD70, size: 0x8, addend: 0x0, symName: __ZNSt3__110unique_ptrIPiNS_22__allocator_destructorINS_9allocatorIiEEEEE5resetB8ne180100ES1_, symObjAddr: 0x3748, symBinAddr: 0x100006394, symSize: 0x78 }
  - { offsetInCU: 0xCDB4, offset: 0xCDB4, size: 0x8, addend: 0x0, symName: __ZNSt3__117__compressed_pairIPiNS_22__allocator_destructorINS_9allocatorIiEEEEE6secondB8ne180100Ev, symObjAddr: 0x37C0, symBinAddr: 0x10000640C, symSize: 0x28 }
  - { offsetInCU: 0xCDDA, offset: 0xCDDA, size: 0x8, addend: 0x0, symName: __ZNSt3__122__allocator_destructorINS_9allocatorIiEEEclB8ne180100EPi, symObjAddr: 0x37E8, symBinAddr: 0x100006434, symSize: 0x34 }
  - { offsetInCU: 0xCE0E, offset: 0xCE0E, size: 0x8, addend: 0x0, symName: __ZNSt3__122__compressed_pair_elemINS_22__allocator_destructorINS_9allocatorIiEEEELi1ELb0EE5__getB8ne180100Ev, symObjAddr: 0x381C, symBinAddr: 0x100006468, symSize: 0x14 }
  - { offsetInCU: 0xCE34, offset: 0xCE34, size: 0x8, addend: 0x0, symName: __ZNSt3__114__split_bufferIPiRNS_9allocatorIS1_EEED2Ev, symObjAddr: 0x3830, symBinAddr: 0x10000647C, symSize: 0x80 }
  - { offsetInCU: 0xCE60, offset: 0xCE60, size: 0x8, addend: 0x0, symName: __ZNSt3__114__split_bufferIPiRNS_9allocatorIS1_EEE5clearB8ne180100Ev, symObjAddr: 0x38B0, symBinAddr: 0x1000064FC, symSize: 0x28 }
  - { offsetInCU: 0xCE86, offset: 0xCE86, size: 0x8, addend: 0x0, symName: __ZNKSt3__114__split_bufferIPiRNS_9allocatorIS1_EEE8capacityB8ne180100Ev, symObjAddr: 0x38D8, symBinAddr: 0x100006524, symSize: 0x40 }
  - { offsetInCU: 0xCEAC, offset: 0xCEAC, size: 0x8, addend: 0x0, symName: __ZNSt3__114__split_bufferIPiRNS_9allocatorIS1_EEE17__destruct_at_endB8ne180100EPS1_, symObjAddr: 0x3918, symBinAddr: 0x100006564, symSize: 0x2C }
  - { offsetInCU: 0xCEE0, offset: 0xCEE0, size: 0x8, addend: 0x0, symName: __ZNSt3__114__split_bufferIPiRNS_9allocatorIS1_EEE17__destruct_at_endB8ne180100EPS1_NS_17integral_constantIbLb0EEE, symObjAddr: 0x3944, symBinAddr: 0x100006590, symSize: 0x94 }
  - { offsetInCU: 0xCF20, offset: 0xCF20, size: 0x8, addend: 0x0, symName: __ZNKSt3__114__split_bufferIPiRNS_9allocatorIS1_EEE9__end_capB8ne180100Ev, symObjAddr: 0x39D8, symBinAddr: 0x100006624, symSize: 0x28 }
  - { offsetInCU: 0xCF46, offset: 0xCF46, size: 0x8, addend: 0x0, symName: __ZNKSt3__117__compressed_pairIPPiRNS_9allocatorIS1_EEE5firstB8ne180100Ev, symObjAddr: 0x3A00, symBinAddr: 0x10000664C, symSize: 0x24 }
  - { offsetInCU: 0xCF6C, offset: 0xCF6C, size: 0x8, addend: 0x0, symName: __ZNSt3__19allocatorIiE9constructB8ne180100IiJRKiEEEvPT_DpOT0_, symObjAddr: 0x3A24, symBinAddr: 0x100006670, symSize: 0x28 }
  - { offsetInCU: 0xCFC2, offset: 0xCFC2, size: 0x8, addend: 0x0, symName: __ZNSt3__15dequeIiNS_9allocatorIiEEE4backEv, symObjAddr: 0x3A4C, symBinAddr: 0x100006698, symSize: 0x68 }
  - { offsetInCU: 0xCFF9, offset: 0xCFF9, size: 0x8, addend: 0x0, symName: __ZNSt3__15dequeIiNS_9allocatorIiEEE8pop_backEv, symObjAddr: 0x3AB4, symBinAddr: 0x100006700, symSize: 0xE0 }
  - { offsetInCU: 0xD05D, offset: 0xD05D, size: 0x8, addend: 0x0, symName: __ZNKSt3__15dequeIiNS_9allocatorIiEEE22__annotate_shrink_backB8ne180100Emm, symObjAddr: 0x3BA8, symBinAddr: 0x1000067F4, symSize: 0x18 }
  - { offsetInCU: 0xD0A1, offset: 0xD0A1, size: 0x8, addend: 0x0, symName: __ZNSt3__15dequeIiNS_9allocatorIiEEE25__maybe_remove_back_spareB8ne180100Eb, symObjAddr: 0x3BC0, symBinAddr: 0x10000680C, symSize: 0xE8 }
  - { offsetInCU: 0xD0D6, offset: 0xD0D6, size: 0x8, addend: 0x0, symName: __ZNKSt3__15dequeIiNS_9allocatorIiEEE19__back_spare_blocksB8ne180100Ev, symObjAddr: 0x3CA8, symBinAddr: 0x1000068F4, symSize: 0x2C }
  - { offsetInCU: 0xD0FC, offset: 0xD0FC, size: 0x8, addend: 0x0, symName: __ZNSt3__114__split_bufferIPiNS_9allocatorIS1_EEE4backB8ne180100Ev, symObjAddr: 0x3CD4, symBinAddr: 0x100006920, symSize: 0x1C }
  - { offsetInCU: 0xD122, offset: 0xD122, size: 0x8, addend: 0x0, symName: __ZNSt3__114__split_bufferIPiNS_9allocatorIS1_EEE8pop_backB8ne180100Ev, symObjAddr: 0x3CF0, symBinAddr: 0x10000693C, symSize: 0x2C }
  - { offsetInCU: 0xD148, offset: 0xD148, size: 0x8, addend: 0x0, symName: __ZNSt3__111char_traitsIcE6lengthB8ne180100EPKc, symObjAddr: 0x3F10, symBinAddr: 0x100006B5C, symSize: 0x48 }
  - { offsetInCU: 0xD189, offset: 0xD189, size: 0x8, addend: 0x0, symName: __ZNKSt3__113basic_ostreamIcNS_11char_traitsIcEEE6sentrycvbB8ne180100Ev, symObjAddr: 0x3F58, symBinAddr: 0x100006BA4, symSize: 0x1C }
  - { offsetInCU: 0xD1AF, offset: 0xD1AF, size: 0x8, addend: 0x0, symName: __ZNSt3__119ostreambuf_iteratorIcNS_11char_traitsIcEEEC1B8ne180100ERNS_13basic_ostreamIcS2_EE, symObjAddr: 0x41BC, symBinAddr: 0x100006E08, symSize: 0x34 }
  - { offsetInCU: 0xD1E7, offset: 0xD1E7, size: 0x8, addend: 0x0, symName: __ZNKSt3__18ios_base5flagsB8ne180100Ev, symObjAddr: 0x41F0, symBinAddr: 0x100006E3C, symSize: 0x18 }
  - { offsetInCU: 0xD20F, offset: 0xD20F, size: 0x8, addend: 0x0, symName: __ZNKSt3__19basic_iosIcNS_11char_traitsIcEEE4fillB8ne180100Ev, symObjAddr: 0x4208, symBinAddr: 0x100006E54, symSize: 0x64 }
  - { offsetInCU: 0xD237, offset: 0xD237, size: 0x8, addend: 0x0, symName: __ZNKSt3__119ostreambuf_iteratorIcNS_11char_traitsIcEEE6failedB8ne180100Ev, symObjAddr: 0x426C, symBinAddr: 0x100006EB8, symSize: 0x24 }
  - { offsetInCU: 0xD25D, offset: 0xD25D, size: 0x8, addend: 0x0, symName: __ZNSt3__19basic_iosIcNS_11char_traitsIcEEE8setstateB8ne180100Ej, symObjAddr: 0x4290, symBinAddr: 0x100006EDC, symSize: 0x2C }
  - { offsetInCU: 0xD292, offset: 0xD292, size: 0x8, addend: 0x0, symName: __ZNKSt3__18ios_base5widthB8ne180100Ev, symObjAddr: 0x42BC, symBinAddr: 0x100006F08, symSize: 0x18 }
  - { offsetInCU: 0xD2BA, offset: 0xD2BA, size: 0x8, addend: 0x0, symName: __ZNSt3__115basic_streambufIcNS_11char_traitsIcEEE5sputnB8ne180100EPKcl, symObjAddr: 0x42D4, symBinAddr: 0x100006F20, symSize: 0x3C }
  - { offsetInCU: 0xD2FC, offset: 0xD2FC, size: 0x8, addend: 0x0, symName: __ZNSt3__112basic_stringIcNS_11char_traitsIcEENS_9allocatorIcEEEC1B8ne180100Emc, symObjAddr: 0x4310, symBinAddr: 0x100006F5C, symSize: 0x3C }
  - { offsetInCU: 0xD344, offset: 0xD344, size: 0x8, addend: 0x0, symName: __ZNKSt3__112basic_stringIcNS_11char_traitsIcEENS_9allocatorIcEEE4dataB8ne180100Ev, symObjAddr: 0x434C, symBinAddr: 0x100006F98, symSize: 0x28 }
  - { offsetInCU: 0xD36A, offset: 0xD36A, size: 0x8, addend: 0x0, symName: __ZNSt3__18ios_base5widthB8ne180100El, symObjAddr: 0x4374, symBinAddr: 0x100006FC0, symSize: 0x2C }
  - { offsetInCU: 0xD3B0, offset: 0xD3B0, size: 0x8, addend: 0x0, symName: __ZNSt3__112basic_stringIcNS_11char_traitsIcEENS_9allocatorIcEEEC2B8ne180100Emc, symObjAddr: 0x43A0, symBinAddr: 0x100006FEC, symSize: 0x4C }
  - { offsetInCU: 0xD3FD, offset: 0xD3FD, size: 0x8, addend: 0x0, symName: __ZNSt3__117__compressed_pairINS_12basic_stringIcNS_11char_traitsIcEENS_9allocatorIcEEE5__repES5_EC1B8ne180100INS_18__default_init_tagESA_EEOT_OT0_, symObjAddr: 0x43EC, symBinAddr: 0x100007038, symSize: 0x3C }
  - { offsetInCU: 0xD455, offset: 0xD455, size: 0x8, addend: 0x0, symName: __ZNSt3__117__compressed_pairINS_12basic_stringIcNS_11char_traitsIcEENS_9allocatorIcEEE5__repES5_EC2B8ne180100INS_18__default_init_tagESA_EEOT_OT0_, symObjAddr: 0x4428, symBinAddr: 0x100007074, symSize: 0x3C }
  - { offsetInCU: 0xD4AD, offset: 0xD4AD, size: 0x8, addend: 0x0, symName: __ZNSt3__122__compressed_pair_elemINS_12basic_stringIcNS_11char_traitsIcEENS_9allocatorIcEEE5__repELi0ELb0EEC2B8ne180100ENS_18__default_init_tagE, symObjAddr: 0x4464, symBinAddr: 0x1000070B0, symSize: 0x14 }
  - { offsetInCU: 0xD4E1, offset: 0xD4E1, size: 0x8, addend: 0x0, symName: __ZNSt3__122__compressed_pair_elemINS_9allocatorIcEELi1ELb1EEC2B8ne180100ENS_18__default_init_tagE, symObjAddr: 0x4478, symBinAddr: 0x1000070C4, symSize: 0x2C }
  - { offsetInCU: 0xD515, offset: 0xD515, size: 0x8, addend: 0x0, symName: __ZNSt3__19allocatorIcEC2B8ne180100Ev, symObjAddr: 0x44A4, symBinAddr: 0x1000070F0, symSize: 0x2C }
  - { offsetInCU: 0xD53F, offset: 0xD53F, size: 0x8, addend: 0x0, symName: __ZNSt3__116__non_trivial_ifILb1ENS_9allocatorIcEEEC2B8ne180100Ev, symObjAddr: 0x44D0, symBinAddr: 0x10000711C, symSize: 0x14 }
  - { offsetInCU: 0xD569, offset: 0xD569, size: 0x8, addend: 0x0, symName: __ZNKSt3__112basic_stringIcNS_11char_traitsIcEENS_9allocatorIcEEE13__get_pointerB8ne180100Ev, symObjAddr: 0x44F8, symBinAddr: 0x100007144, symSize: 0x54 }
  - { offsetInCU: 0xD58F, offset: 0xD58F, size: 0x8, addend: 0x0, symName: __ZNKSt3__112basic_stringIcNS_11char_traitsIcEENS_9allocatorIcEEE9__is_longB8ne180100Ev, symObjAddr: 0x454C, symBinAddr: 0x100007198, symSize: 0x94 }
  - { offsetInCU: 0xD5B5, offset: 0xD5B5, size: 0x8, addend: 0x0, symName: __ZNKSt3__112basic_stringIcNS_11char_traitsIcEENS_9allocatorIcEEE18__get_long_pointerB8ne180100Ev, symObjAddr: 0x45E0, symBinAddr: 0x10000722C, symSize: 0x28 }
  - { offsetInCU: 0xD5DB, offset: 0xD5DB, size: 0x8, addend: 0x0, symName: __ZNKSt3__112basic_stringIcNS_11char_traitsIcEENS_9allocatorIcEEE19__get_short_pointerB8ne180100Ev, symObjAddr: 0x4608, symBinAddr: 0x100007254, symSize: 0x28 }
  - { offsetInCU: 0xD601, offset: 0xD601, size: 0x8, addend: 0x0, symName: __ZNKSt3__117__compressed_pairINS_12basic_stringIcNS_11char_traitsIcEENS_9allocatorIcEEE5__repES5_E5firstB8ne180100Ev, symObjAddr: 0x4630, symBinAddr: 0x10000727C, symSize: 0x24 }
  - { offsetInCU: 0xD627, offset: 0xD627, size: 0x8, addend: 0x0, symName: __ZNKSt3__122__compressed_pair_elemINS_12basic_stringIcNS_11char_traitsIcEENS_9allocatorIcEEE5__repELi0ELb0EE5__getB8ne180100Ev, symObjAddr: 0x4654, symBinAddr: 0x1000072A0, symSize: 0x14 }
  - { offsetInCU: 0xD64D, offset: 0xD64D, size: 0x8, addend: 0x0, symName: __ZNSt3__114pointer_traitsIPKcE10pointer_toB8ne180100ERS1_, symObjAddr: 0x4668, symBinAddr: 0x1000072B4, symSize: 0x14 }
  - { offsetInCU: 0xD670, offset: 0xD670, size: 0x8, addend: 0x0, symName: __ZNSt3__119ostreambuf_iteratorIcNS_11char_traitsIcEEEC2B8ne180100ERNS_13basic_ostreamIcS2_EE, symObjAddr: 0x467C, symBinAddr: 0x1000072C8, symSize: 0x68 }
  - { offsetInCU: 0xD6A8, offset: 0xD6A8, size: 0x8, addend: 0x0, symName: __ZNKSt3__19basic_iosIcNS_11char_traitsIcEEE5rdbufB8ne180100Ev, symObjAddr: 0x46E4, symBinAddr: 0x100007330, symSize: 0x24 }
  - { offsetInCU: 0xD6D0, offset: 0xD6D0, size: 0x8, addend: 0x0, symName: __ZNKSt3__18ios_base5rdbufB8ne180100Ev, symObjAddr: 0x4708, symBinAddr: 0x100007354, symSize: 0x18 }
  - { offsetInCU: 0xD6F6, offset: 0xD6F6, size: 0x8, addend: 0x0, symName: __ZNSt3__111char_traitsIcE11eq_int_typeB8ne180100Eii, symObjAddr: 0x4720, symBinAddr: 0x10000736C, symSize: 0x28 }
  - { offsetInCU: 0xD729, offset: 0xD729, size: 0x8, addend: 0x0, symName: __ZNSt3__111char_traitsIcE3eofB8ne180100Ev, symObjAddr: 0x4748, symBinAddr: 0x100007394, symSize: 0x8 }
  - { offsetInCU: 0xD73D, offset: 0xD73D, size: 0x8, addend: 0x0, symName: __ZNKSt3__19basic_iosIcNS_11char_traitsIcEEE5widenB8ne180100Ec, symObjAddr: 0x4750, symBinAddr: 0x10000739C, symSize: 0x8C }
  - { offsetInCU: 0xD7A6, offset: 0xD7A6, size: 0x8, addend: 0x0, symName: __ZNKSt3__15ctypeIcE5widenB8ne180100Ec, symObjAddr: 0x4808, symBinAddr: 0x100007454, symSize: 0x38 }
  - { offsetInCU: 0xD7DB, offset: 0xD7DB, size: 0x8, addend: 0x0, symName: __ZNSt3__18ios_base8setstateB8ne180100Ej, symObjAddr: 0x4840, symBinAddr: 0x10000748C, symSize: 0x34 }
  - { offsetInCU: 0xD812, offset: 0xD812, size: 0x8, addend: 0x0, symName: __ZNSt3__15stackIiNS_5dequeIiNS_9allocatorIiEEEEEC2B8ne180100Ev, symObjAddr: 0x4898, symBinAddr: 0x1000074E4, symSize: 0x2C }
  - { offsetInCU: 0xD83C, offset: 0xD83C, size: 0x8, addend: 0x0, symName: __ZNSt3__15dequeIiNS_9allocatorIiEEEC1B8ne180100Ev, symObjAddr: 0x48C4, symBinAddr: 0x100007510, symSize: 0x2C }
  - { offsetInCU: 0xD866, offset: 0xD866, size: 0x8, addend: 0x0, symName: __ZNSt3__15dequeIiNS_9allocatorIiEEEC2B8ne180100Ev, symObjAddr: 0x48F0, symBinAddr: 0x10000753C, symSize: 0x84 }
  - { offsetInCU: 0xD890, offset: 0xD890, size: 0x8, addend: 0x0, symName: __ZNSt3__114__split_bufferIPiNS_9allocatorIS1_EEEC1B8ne180100Ev, symObjAddr: 0x4974, symBinAddr: 0x1000075C0, symSize: 0x2C }
  - { offsetInCU: 0xD8BF, offset: 0xD8BF, size: 0x8, addend: 0x0, symName: __ZNSt3__117__compressed_pairImNS_9allocatorIiEEEC1B8ne180100IiNS_18__default_init_tagEEEOT_OT0_, symObjAddr: 0x49A0, symBinAddr: 0x1000075EC, symSize: 0x3C }
  - { offsetInCU: 0xD917, offset: 0xD917, size: 0x8, addend: 0x0, symName: __ZNSt3__114__split_bufferIPiNS_9allocatorIS1_EEEC2B8ne180100Ev, symObjAddr: 0x49DC, symBinAddr: 0x100007628, symSize: 0x48 }
  - { offsetInCU: 0xD941, offset: 0xD941, size: 0x8, addend: 0x0, symName: __ZNSt3__117__compressed_pairIPPiNS_9allocatorIS1_EEEC1B8ne180100IDnNS_18__default_init_tagEEEOT_OT0_, symObjAddr: 0x4A24, symBinAddr: 0x100007670, symSize: 0x3C }
  - { offsetInCU: 0xD999, offset: 0xD999, size: 0x8, addend: 0x0, symName: __ZNSt3__117__compressed_pairIPPiNS_9allocatorIS1_EEEC2B8ne180100IDnNS_18__default_init_tagEEEOT_OT0_, symObjAddr: 0x4A60, symBinAddr: 0x1000076AC, symSize: 0x40 }
  - { offsetInCU: 0xD9F1, offset: 0xD9F1, size: 0x8, addend: 0x0, symName: __ZNSt3__122__compressed_pair_elemINS_9allocatorIPiEELi1ELb1EEC2B8ne180100ENS_18__default_init_tagE, symObjAddr: 0x4AA0, symBinAddr: 0x1000076EC, symSize: 0x2C }
  - { offsetInCU: 0xDA25, offset: 0xDA25, size: 0x8, addend: 0x0, symName: __ZNSt3__19allocatorIPiEC2B8ne180100Ev, symObjAddr: 0x4ACC, symBinAddr: 0x100007718, symSize: 0x2C }
  - { offsetInCU: 0xDA4F, offset: 0xDA4F, size: 0x8, addend: 0x0, symName: __ZNSt3__116__non_trivial_ifILb1ENS_9allocatorIPiEEEC2B8ne180100Ev, symObjAddr: 0x4AF8, symBinAddr: 0x100007744, symSize: 0x14 }
  - { offsetInCU: 0xDA79, offset: 0xDA79, size: 0x8, addend: 0x0, symName: __ZNSt3__117__compressed_pairImNS_9allocatorIiEEEC2B8ne180100IiNS_18__default_init_tagEEEOT_OT0_, symObjAddr: 0x4B0C, symBinAddr: 0x100007758, symSize: 0x40 }
  - { offsetInCU: 0xDAD1, offset: 0xDAD1, size: 0x8, addend: 0x0, symName: __ZNSt3__122__compressed_pair_elemImLi0ELb0EEC2B8ne180100IivEEOT_, symObjAddr: 0x4B4C, symBinAddr: 0x100007798, symSize: 0x24 }
  - { offsetInCU: 0xDB13, offset: 0xDB13, size: 0x8, addend: 0x0, symName: __ZNSt3__122__compressed_pair_elemINS_9allocatorIiEELi1ELb1EEC2B8ne180100ENS_18__default_init_tagE, symObjAddr: 0x4B70, symBinAddr: 0x1000077BC, symSize: 0x2C }
  - { offsetInCU: 0xDB47, offset: 0xDB47, size: 0x8, addend: 0x0, symName: __ZNSt3__19allocatorIiEC2B8ne180100Ev, symObjAddr: 0x4B9C, symBinAddr: 0x1000077E8, symSize: 0x2C }
  - { offsetInCU: 0xDB71, offset: 0xDB71, size: 0x8, addend: 0x0, symName: __ZNSt3__116__non_trivial_ifILb1ENS_9allocatorIiEEEC2B8ne180100Ev, symObjAddr: 0x4BC8, symBinAddr: 0x100007814, symSize: 0x14 }
...
